; ModuleID = '63/1005.c'
source_filename = "63/1005.c"
target datalayout = "e-m:e-p270:32:32-p271:32:32-p272:64:64-i64:64-f80:128-n8:16:32:64-S128"
target triple = "x86_64-pc-linux-gnu"

@.str = private unnamed_addr constant [6 x i8] c"%d %d\00", align 1
@.str.1 = private unnamed_addr constant [3 x i8] c"%d\00", align 1
@.str.2 = private unnamed_addr constant [2 x i8] c" \00", align 1
@.str.3 = private unnamed_addr constant [2 x i8] c"\0A\00", align 1

; Function Attrs: noinline nounwind uwtable
define dso_local i32 @main() #0 {
  %1 = alloca i32, align 4
  %2 = alloca i32, align 4
  %3 = alloca i32, align 4
  %4 = alloca i32, align 4
  %5 = alloca i32, align 4
  %6 = alloca i32, align 4
  %7 = alloca i32, align 4
  %8 = alloca i32, align 4
  %9 = alloca i32, align 4
  %10 = alloca i32*, align 8
  %11 = alloca i32*, align 8
  %12 = alloca i32*, align 8
  store i32 0, i32* %1, align 4
  %13 = call i32 (i8*, ...) @__isoc99_scanf(i8* getelementptr inbounds ([6 x i8], [6 x i8]* @.str, i64 0, i64 0), i32* %2, i32* %3)
  %14 = load i32, i32* %2, align 4
  %15 = load i32, i32* %3, align 4
  %16 = mul nsw i32 %14, %15
  %17 = sext i32 %16 to i64
  %18 = mul i64 %17, 4
  %19 = call noalias i8* @malloc(i64 %18) #3
  %20 = bitcast i8* %19 to i32*
  store i32* %20, i32** %10, align 8
  store i32 0, i32* %6, align 4
  br label %21

21:                                               ; preds = %44, %0
  %22 = load i32, i32* %6, align 4
  %23 = load i32, i32* %2, align 4
  %24 = icmp slt i32 %22, %23
  br i1 %24, label %25, label %47

25:                                               ; preds = %21
  store i32 0, i32* %7, align 4
  br label %26

26:                                               ; preds = %40, %25
  %27 = load i32, i32* %7, align 4
  %28 = load i32, i32* %3, align 4
  %29 = icmp slt i32 %27, %28
  br i1 %29, label %30, label %43

30:                                               ; preds = %26
  %31 = load i32*, i32** %10, align 8
  %32 = load i32, i32* %6, align 4
  %33 = load i32, i32* %3, align 4
  %34 = mul nsw i32 %32, %33
  %35 = load i32, i32* %7, align 4
  %36 = add nsw i32 %34, %35
  %37 = sext i32 %36 to i64
  %38 = getelementptr inbounds i32, i32* %31, i64 %37
  %39 = call i32 (i8*, ...) @__isoc99_scanf(i8* getelementptr inbounds ([3 x i8], [3 x i8]* @.str.1, i64 0, i64 0), i32* %38)
  br label %40

40:                                               ; preds = %30
  %41 = load i32, i32* %7, align 4
  %42 = add nsw i32 %41, 1
  store i32 %42, i32* %7, align 4
  br label %26

43:                                               ; preds = %26
  br label %44

44:                                               ; preds = %43
  %45 = load i32, i32* %6, align 4
  %46 = add nsw i32 %45, 1
  store i32 %46, i32* %6, align 4
  br label %21

47:                                               ; preds = %21
  %48 = call i32 (i8*, ...) @__isoc99_scanf(i8* getelementptr inbounds ([6 x i8], [6 x i8]* @.str, i64 0, i64 0), i32* %4, i32* %5)
  %49 = load i32, i32* %4, align 4
  %50 = load i32, i32* %5, align 4
  %51 = mul nsw i32 %49, %50
  %52 = sext i32 %51 to i64
  %53 = mul i64 %52, 4
  %54 = call noalias i8* @malloc(i64 %53) #3
  %55 = bitcast i8* %54 to i32*
  store i32* %55, i32** %11, align 8
  %56 = load i32, i32* %2, align 4
  %57 = load i32, i32* %5, align 4
  %58 = mul nsw i32 %56, %57
  %59 = sext i32 %58 to i64
  %60 = mul i64 %59, 4
  %61 = call noalias i8* @malloc(i64 %60) #3
  %62 = bitcast i8* %61 to i32*
  store i32* %62, i32** %12, align 8
  store i32 0, i32* %6, align 4
  br label %63

63:                                               ; preds = %86, %47
  %64 = load i32, i32* %6, align 4
  %65 = load i32, i32* %4, align 4
  %66 = icmp slt i32 %64, %65
  br i1 %66, label %67, label %89

67:                                               ; preds = %63
  store i32 0, i32* %7, align 4
  br label %68

68:                                               ; preds = %82, %67
  %69 = load i32, i32* %7, align 4
  %70 = load i32, i32* %5, align 4
  %71 = icmp slt i32 %69, %70
  br i1 %71, label %72, label %85

72:                                               ; preds = %68
  %73 = load i32*, i32** %11, align 8
  %74 = load i32, i32* %6, align 4
  %75 = load i32, i32* %5, align 4
  %76 = mul nsw i32 %74, %75
  %77 = load i32, i32* %7, align 4
  %78 = add nsw i32 %76, %77
  %79 = sext i32 %78 to i64
  %80 = getelementptr inbounds i32, i32* %73, i64 %79
  %81 = call i32 (i8*, ...) @__isoc99_scanf(i8* getelementptr inbounds ([3 x i8], [3 x i8]* @.str.1, i64 0, i64 0), i32* %80)
  br label %82

82:                                               ; preds = %72
  %83 = load i32, i32* %7, align 4
  %84 = add nsw i32 %83, 1
  store i32 %84, i32* %7, align 4
  br label %68

85:                                               ; preds = %68
  br label %86

86:                                               ; preds = %85
  %87 = load i32, i32* %6, align 4
  %88 = add nsw i32 %87, 1
  store i32 %88, i32* %6, align 4
  br label %63

89:                                               ; preds = %63
  store i32 0, i32* %6, align 4
  br label %90

90:                                               ; preds = %163, %89
  %91 = load i32, i32* %6, align 4
  %92 = load i32, i32* %2, align 4
  %93 = icmp slt i32 %91, %92
  br i1 %93, label %94, label %166

94:                                               ; preds = %90
  store i32 0, i32* %7, align 4
  br label %95

95:                                               ; preds = %159, %94
  %96 = load i32, i32* %7, align 4
  %97 = load i32, i32* %5, align 4
  %98 = icmp slt i32 %96, %97
  br i1 %98, label %99, label %162

99:                                               ; preds = %95
  store i32 0, i32* %9, align 4
  store i32 0, i32* %8, align 4
  br label %100

100:                                              ; preds = %126, %99
  %101 = load i32, i32* %8, align 4
  %102 = load i32, i32* %4, align 4
  %103 = icmp slt i32 %101, %102
  br i1 %103, label %104, label %129

104:                                              ; preds = %100
  %105 = load i32, i32* %9, align 4
  %106 = load i32*, i32** %10, align 8
  %107 = load i32, i32* %6, align 4
  %108 = load i32, i32* %3, align 4
  %109 = mul nsw i32 %107, %108
  %110 = load i32, i32* %8, align 4
  %111 = add nsw i32 %109, %110
  %112 = sext i32 %111 to i64
  %113 = getelementptr inbounds i32, i32* %106, i64 %112
  %114 = load i32, i32* %113, align 4
  %115 = load i32*, i32** %11, align 8
  %116 = load i32, i32* %8, align 4
  %117 = load i32, i32* %5, align 4
  %118 = mul nsw i32 %116, %117
  %119 = load i32, i32* %7, align 4
  %120 = add nsw i32 %118, %119
  %121 = sext i32 %120 to i64
  %122 = getelementptr inbounds i32, i32* %115, i64 %121
  %123 = load i32, i32* %122, align 4
  %124 = mul nsw i32 %114, %123
  %125 = add nsw i32 %105, %124
  store i32 %125, i32* %9, align 4
  br label %126

126:                                              ; preds = %104
  %127 = load i32, i32* %8, align 4
  %128 = add nsw i32 %127, 1
  store i32 %128, i32* %8, align 4
  br label %100

129:                                              ; preds = %100
  %130 = load i32, i32* %9, align 4
  %131 = load i32*, i32** %12, align 8
  %132 = load i32, i32* %6, align 4
  %133 = load i32, i32* %5, align 4
  %134 = mul nsw i32 %132, %133
  %135 = load i32, i32* %7, align 4
  %136 = add nsw i32 %134, %135
  %137 = sext i32 %136 to i64
  %138 = getelementptr inbounds i32, i32* %131, i64 %137
  store i32 %130, i32* %138, align 4
  %139 = load i32*, i32** %12, align 8
  %140 = load i32, i32* %6, align 4
  %141 = load i32, i32* %5, align 4
  %142 = mul nsw i32 %140, %141
  %143 = load i32, i32* %7, align 4
  %144 = add nsw i32 %142, %143
  %145 = sext i32 %144 to i64
  %146 = getelementptr inbounds i32, i32* %139, i64 %145
  %147 = load i32, i32* %146, align 4
  %148 = call i32 (i8*, ...) @printf(i8* getelementptr inbounds ([3 x i8], [3 x i8]* @.str.1, i64 0, i64 0), i32 %147)
  %149 = load i32, i32* %7, align 4
  %150 = add nsw i32 %149, 1
  %151 = load i32, i32* %5, align 4
  %152 = srem i32 %150, %151
  %153 = icmp ne i32 %152, 0
  br i1 %153, label %154, label %156

154:                                              ; preds = %129
  %155 = call i32 (i8*, ...) @printf(i8* getelementptr inbounds ([2 x i8], [2 x i8]* @.str.2, i64 0, i64 0))
  br label %158

156:                                              ; preds = %129
  %157 = call i32 (i8*, ...) @printf(i8* getelementptr inbounds ([2 x i8], [2 x i8]* @.str.3, i64 0, i64 0))
  br label %158

158:                                              ; preds = %156, %154
  br label %159

159:                                              ; preds = %158
  %160 = load i32, i32* %7, align 4
  %161 = add nsw i32 %160, 1
  store i32 %161, i32* %7, align 4
  br label %95

162:                                              ; preds = %95
  br label %163

163:                                              ; preds = %162
  %164 = load i32, i32* %6, align 4
  %165 = add nsw i32 %164, 1
  store i32 %165, i32* %6, align 4
  br label %90

166:                                              ; preds = %90
  %167 = load i32*, i32** %10, align 8
  %168 = bitcast i32* %167 to i8*
  call void @free(i8* %168) #3
  %169 = load i32*, i32** %11, align 8
  %170 = bitcast i32* %169 to i8*
  call void @free(i8* %170) #3
  %171 = load i32*, i32** %12, align 8
  %172 = bitcast i32* %171 to i8*
  call void @free(i8* %172) #3
  %173 = call i32 @getchar()
  %174 = call i32 @getchar()
  %175 = load i32, i32* %1, align 4
  ret i32 %175
}

declare dso_local i32 @__isoc99_scanf(i8*, ...) #1

; Function Attrs: nounwind
declare dso_local noalias i8* @malloc(i64) #2

declare dso_local i32 @printf(i8*, ...) #1

; Function Attrs: nounwind
declare dso_local void @free(i8*) #2

declare dso_local i32 @getchar() #1


!llvm.module.flags = !{!0}
!llvm.ident = !{!1}

!0 = !{i32 1, !"wchar_size", i32 4}
!1 = !{!"clang version 10.0.0-4ubuntu1 "}
